target datalayout = "e-m:e-p270:32:32-p271:32:32-p272:64:64-i64:64-i128:128-f80:128-n8:16:32:64-S128"
target triple = "x86_64-pc-linux-gnu"

; Function Attrs: inlinehint nounwind sspstrong uwtable
define internal i32 @obj2gid0(i64 noundef %0) #1 {
  %2 = alloca i64, align 8
  %3 = alloca i32, align 4
  %4 = alloca i64, align 8
  store i64 %0, ptr %2, align 8, !tbaa !35
  call void @llvm.lifetime.start.p0(i64 4, ptr %3) #27
  call void @llvm.lifetime.start.p0(i64 8, ptr %4) #27
  store i64 0, ptr %4, align 8, !tbaa !35
  %5 = load i64, ptr %2, align 8, !tbaa !35
  %6 = call i32 @obj2gid(i64 noundef %5, ptr noundef %4)
  store i32 %6, ptr %3, align 4, !tbaa !34
  %7 = load i64, ptr %4, align 8, !tbaa !35
  %8 = icmp ne i64 %7, 0
  br i1 %8, label %9, label %12

9:                                                ; preds = %1
  %10 = load i64, ptr %4, align 8, !tbaa !35
  %11 = call i64 @rb_str_resize(i64 noundef %10, i64 noundef 0)
  br label %13

12:                                               ; preds = %1
  br label %13

13:                                               ; preds = %12, %9
  %14 = load i32, ptr %3, align 4, !tbaa !34
  call void @llvm.lifetime.end.p0(i64 8, ptr %4) #27
  call void @llvm.lifetime.end.p0(i64 4, ptr %3) #27
  ret i32 %14
}

; Function Attrs: nounwind sspstrong uwtable
define internal i64 @proc_initgroups(i64 noundef %0, i64 noundef %1, i64 noundef %2) #0 {
  %4 = alloca i64, align 8
  %5 = alloca i64, align 8
  %6 = alloca i64, align 8
  %7 = alloca i32, align 4
  store i64 %0, ptr %4, align 8, !tbaa !35
  store i64 %1, ptr %5, align 8, !tbaa !35
  store i64 %2, ptr %6, align 8, !tbaa !35
  %8 = call ptr @rb_string_value_cstr(ptr noundef %5)
  %9 = load i64, ptr %6, align 8, !tbaa !35
  %10 = call i32 @obj2gid0(i64 noundef %9)
  %11 = call i32 @initgroups(ptr noundef %8, i32 noundef %10)
  %12 = icmp ne i32 %11, 0
  br i1 %12, label %13, label %19

13:                                               ; preds = %3
  br label %14

14:                                               ; preds = %13
  call void @llvm.lifetime.start.p0(i64 4, ptr %7) #27
  %15 = call ptr @rb_errno_ptr()
  %16 = load i32, ptr %15, align 4, !tbaa !34
  store i32 %16, ptr %7, align 4, !tbaa !34
  %17 = load i32, ptr %7, align 4, !tbaa !34
  call void @rb_syserr_fail(i32 noundef %17, ptr noundef null) #30
  unreachable

18:                                               ; No predecessors!
  br label %19

19:                                               ; preds = %18, %3
  %20 = load i64, ptr %4, align 8, !tbaa !35
  %21 = call i64 @proc_getgroups(i64 noundef %20)
  ret i64 %21
}