; Function Attrs: nounwind sspstrong uwtable
define internal i64 @proc_initgroups(i64 noundef %0, i64 noundef %1, i64 noundef %2) #1 {
  %4 = alloca i64, align 8
  %5 = alloca i64, align 8
  store i64 %1, ptr %5, align 8, !tbaa !43
  %6 = call ptr @rb_string_value_cstr(ptr noundef nonnull %5) #27
  call void @llvm.lifetime.start.p0(i64 8, ptr nonnull %4) #27
  store i64 0, ptr %4, align 8, !tbaa !43
  %7 = call fastcc i32 @obj2gid(i64 noundef %2, ptr noundef %4)
  %8 = load i64, ptr %4, align 8, !tbaa !43
  %.not.i = icmp eq i64 %8, 0
  br i1 %.not.i, label %obj2gid0.exit, label %9

9:                                                ; preds = %3
  %10 = call i64 @rb_str_resize(i64 noundef %8, i64 noundef 0) #27
  br label %obj2gid0.exit

obj2gid0.exit:                                    ; preds = %3, %9
  call void @llvm.lifetime.end.p0(i64 8, ptr nonnull %4) #27
  %11 = call i32 @initgroups(ptr noundef %6, i32 noundef %7) #27
  %.not = icmp eq i32 %11, 0
  br i1 %.not, label %15, label %12

12:                                               ; preds = %obj2gid0.exit
  %13 = call ptr @rb_errno_ptr() #27
  %14 = load i32, ptr %13, align 4, !tbaa !60
  call void @rb_syserr_fail(i32 noundef %14, ptr noundef null) #29
  unreachable

15:                                               ; preds = %obj2gid0.exit
  %16 = call i64 @proc_getgroups(i64 poison)
  ret i64 %16
}